; Listing generated by Microsoft (R) Optimizing Compiler Version 19.16.27032.1 

	TITLE	C:\Users\Administrator\source\repos\Day3\Day3\Student.c
	.686P
	.XMM
	include listing.inc
	.model	flat

INCLUDELIB MSVCRTD
INCLUDELIB OLDNAMES

msvcjmc	SEGMENT
__2CC6E67D_corecrt_stdio_config@h DB 01H
__05476D76_corecrt_wstdio@h DB 01H
__A452D4A0_stdio@h DB 01H
__78DD47BA_student@c DB 01H
msvcjmc	ENDS
PUBLIC	___local_stdio_printf_options
PUBLIC	___local_stdio_scanf_options
PUBLIC	__vfprintf_l
PUBLIC	_printf
PUBLIC	__vfscanf_s_l
PUBLIC	_scanf_s
PUBLIC	_acceptStudData
PUBLIC	_displayStudData
PUBLIC	_calculatePercentage
PUBLIC	__JustMyCode_Default
PUBLIC	??_C@_0BB@IGJOHCEA@Enter?5you?5name?$DP?6@	; `string'
PUBLIC	??_C@_02DKCKIIND@?$CFs@				; `string'
PUBLIC	??_C@_0BA@DFIOIMJC@Enter?5you?5Rno?$DP?6@	; `string'
PUBLIC	??_C@_02DPKJAMEF@?$CFd@				; `string'
PUBLIC	??_C@_0BH@NDPKDCBM@Enter?5you?5percentage?$DP?6@ ; `string'
PUBLIC	??_C@_02NJPGOMH@?$CFf@				; `string'
PUBLIC	??_C@_0BD@KANLGOAB@Enter?5you?5Salary?$DP?6@	; `string'
PUBLIC	??_C@_0L@HAEIAIAL@?6Name?3?5?$CFs?6@		; `string'
PUBLIC	??_C@_0P@INOCLALE@Roll?5No?4?5?3?5?$CFd?6@	; `string'
PUBLIC	??_C@_0BA@FCKMJBMG@Percentage?3?5?$CFf?6@	; `string'
PUBLIC	??_C@_0M@MKKIBED@Salary?3?5?$CFf?6@		; `string'
PUBLIC	__real@41200000
EXTRN	__imp____acrt_iob_func:PROC
EXTRN	__imp____stdio_common_vfprintf:PROC
EXTRN	__imp____stdio_common_vfscanf:PROC
EXTRN	@__CheckForDebuggerJustMyCode@4:PROC
EXTRN	__RTC_CheckEsp:PROC
EXTRN	__RTC_InitBase:PROC
EXTRN	__RTC_Shutdown:PROC
EXTRN	__fltused:DWORD
_DATA	SEGMENT
COMM	?_OptionsStorage@?1??__local_stdio_printf_options@@9@9:QWORD							; `__local_stdio_printf_options'::`2'::_OptionsStorage
COMM	?_OptionsStorage@?1??__local_stdio_scanf_options@@9@9:QWORD							; `__local_stdio_scanf_options'::`2'::_OptionsStorage
_DATA	ENDS
;	COMDAT __real@41200000
CONST	SEGMENT
__real@41200000 DD 041200000r			; 10
CONST	ENDS
;	COMDAT rtc$TMZ
rtc$TMZ	SEGMENT
__RTC_Shutdown.rtc$TMZ DD FLAT:__RTC_Shutdown
rtc$TMZ	ENDS
;	COMDAT rtc$IMZ
rtc$IMZ	SEGMENT
__RTC_InitBase.rtc$IMZ DD FLAT:__RTC_InitBase
rtc$IMZ	ENDS
;	COMDAT ??_C@_0M@MKKIBED@Salary?3?5?$CFf?6@
CONST	SEGMENT
??_C@_0M@MKKIBED@Salary?3?5?$CFf?6@ DB 'Salary: %f', 0aH, 00H ; `string'
CONST	ENDS
;	COMDAT ??_C@_0BA@FCKMJBMG@Percentage?3?5?$CFf?6@
CONST	SEGMENT
??_C@_0BA@FCKMJBMG@Percentage?3?5?$CFf?6@ DB 'Percentage: %f', 0aH, 00H ; `string'
CONST	ENDS
;	COMDAT ??_C@_0P@INOCLALE@Roll?5No?4?5?3?5?$CFd?6@
CONST	SEGMENT
??_C@_0P@INOCLALE@Roll?5No?4?5?3?5?$CFd?6@ DB 'Roll No. : %d', 0aH, 00H ; `string'
CONST	ENDS
;	COMDAT ??_C@_0L@HAEIAIAL@?6Name?3?5?$CFs?6@
CONST	SEGMENT
??_C@_0L@HAEIAIAL@?6Name?3?5?$CFs?6@ DB 0aH, 'Name: %s', 0aH, 00H ; `string'
CONST	ENDS
;	COMDAT ??_C@_0BD@KANLGOAB@Enter?5you?5Salary?$DP?6@
CONST	SEGMENT
??_C@_0BD@KANLGOAB@Enter?5you?5Salary?$DP?6@ DB 'Enter you Salary?', 0aH, 00H ; `string'
CONST	ENDS
;	COMDAT ??_C@_02NJPGOMH@?$CFf@
CONST	SEGMENT
??_C@_02NJPGOMH@?$CFf@ DB '%f', 00H			; `string'
CONST	ENDS
;	COMDAT ??_C@_0BH@NDPKDCBM@Enter?5you?5percentage?$DP?6@
CONST	SEGMENT
??_C@_0BH@NDPKDCBM@Enter?5you?5percentage?$DP?6@ DB 'Enter you percentage'
	DB	'?', 0aH, 00H				; `string'
CONST	ENDS
;	COMDAT ??_C@_02DPKJAMEF@?$CFd@
CONST	SEGMENT
??_C@_02DPKJAMEF@?$CFd@ DB '%d', 00H			; `string'
CONST	ENDS
;	COMDAT ??_C@_0BA@DFIOIMJC@Enter?5you?5Rno?$DP?6@
CONST	SEGMENT
??_C@_0BA@DFIOIMJC@Enter?5you?5Rno?$DP?6@ DB 'Enter you Rno?', 0aH, 00H ; `string'
CONST	ENDS
;	COMDAT ??_C@_02DKCKIIND@?$CFs@
CONST	SEGMENT
??_C@_02DKCKIIND@?$CFs@ DB '%s', 00H			; `string'
CONST	ENDS
;	COMDAT ??_C@_0BB@IGJOHCEA@Enter?5you?5name?$DP?6@
CONST	SEGMENT
??_C@_0BB@IGJOHCEA@Enter?5you?5name?$DP?6@ DB 'Enter you name?', 0aH, 00H ; `string'
CONST	ENDS
; Function compile flags: /Odt
;	COMDAT __JustMyCode_Default
_TEXT	SEGMENT
__JustMyCode_Default PROC				; COMDAT
  00000	55		 push	 ebp
  00001	8b ec		 mov	 ebp, esp
  00003	5d		 pop	 ebp
  00004	c3		 ret	 0
__JustMyCode_Default ENDP
_TEXT	ENDS
; Function compile flags: /Odtp /RTCsu /ZI
;	COMDAT _calculatePercentage
_TEXT	SEGMENT
_f$ = 8							; size = 4
_calculatePercentage PROC				; COMDAT
; File c:\users\administrator\source\repos\day3\day3\student.c
; Line 24
  00000	55		 push	 ebp
  00001	8b ec		 mov	 ebp, esp
  00003	81 ec c0 00 00
	00		 sub	 esp, 192		; 000000c0H
  00009	53		 push	 ebx
  0000a	56		 push	 esi
  0000b	57		 push	 edi
  0000c	8d bd 40 ff ff
	ff		 lea	 edi, DWORD PTR [ebp-192]
  00012	b9 30 00 00 00	 mov	 ecx, 48			; 00000030H
  00017	b8 cc cc cc cc	 mov	 eax, -858993460		; ccccccccH
  0001c	f3 ab		 rep stosd
  0001e	b9 00 00 00 00	 mov	 ecx, OFFSET __78DD47BA_student@c
  00023	e8 00 00 00 00	 call	 @__CheckForDebuggerJustMyCode@4
; Line 25
  00028	8b 45 08	 mov	 eax, DWORD PTR _f$[ebp]
  0002b	f3 0f 10 00	 movss	 xmm0, DWORD PTR [eax]
  0002f	f3 0f 5e 05 00
	00 00 00	 divss	 xmm0, DWORD PTR __real@41200000
  00037	8b 4d 08	 mov	 ecx, DWORD PTR _f$[ebp]
  0003a	f3 0f 58 01	 addss	 xmm0, DWORD PTR [ecx]
  0003e	8b 55 08	 mov	 edx, DWORD PTR _f$[ebp]
  00041	f3 0f 11 02	 movss	 DWORD PTR [edx], xmm0
; Line 26
  00045	5f		 pop	 edi
  00046	5e		 pop	 esi
  00047	5b		 pop	 ebx
  00048	81 c4 c0 00 00
	00		 add	 esp, 192		; 000000c0H
  0004e	3b ec		 cmp	 ebp, esp
  00050	e8 00 00 00 00	 call	 __RTC_CheckEsp
  00055	8b e5		 mov	 esp, ebp
  00057	5d		 pop	 ebp
  00058	c3		 ret	 0
_calculatePercentage ENDP
_TEXT	ENDS
; Function compile flags: /Odtp /RTCsu /ZI
;	COMDAT _displayStudData
_TEXT	SEGMENT
_s$ = 8							; size = 24
_displayStudData PROC					; COMDAT
; File c:\users\administrator\source\repos\day3\day3\student.c
; Line 16
  00000	55		 push	 ebp
  00001	8b ec		 mov	 ebp, esp
  00003	81 ec c0 00 00
	00		 sub	 esp, 192		; 000000c0H
  00009	53		 push	 ebx
  0000a	56		 push	 esi
  0000b	57		 push	 edi
  0000c	8d bd 40 ff ff
	ff		 lea	 edi, DWORD PTR [ebp-192]
  00012	b9 30 00 00 00	 mov	 ecx, 48			; 00000030H
  00017	b8 cc cc cc cc	 mov	 eax, -858993460		; ccccccccH
  0001c	f3 ab		 rep stosd
  0001e	b9 00 00 00 00	 mov	 ecx, OFFSET __78DD47BA_student@c
  00023	e8 00 00 00 00	 call	 @__CheckForDebuggerJustMyCode@4
; Line 17
  00028	8d 45 0c	 lea	 eax, DWORD PTR _s$[ebp+4]
  0002b	50		 push	 eax
  0002c	68 00 00 00 00	 push	 OFFSET ??_C@_0L@HAEIAIAL@?6Name?3?5?$CFs?6@
  00031	e8 00 00 00 00	 call	 _printf
  00036	83 c4 08	 add	 esp, 8
; Line 18
  00039	8b 45 08	 mov	 eax, DWORD PTR _s$[ebp]
  0003c	50		 push	 eax
  0003d	68 00 00 00 00	 push	 OFFSET ??_C@_0P@INOCLALE@Roll?5No?4?5?3?5?$CFd?6@
  00042	e8 00 00 00 00	 call	 _printf
  00047	83 c4 08	 add	 esp, 8
; Line 19
  0004a	f3 0f 5a 45 18	 cvtss2sd xmm0, DWORD PTR _s$[ebp+16]
  0004f	83 ec 08	 sub	 esp, 8
  00052	f2 0f 11 04 24	 movsd	 QWORD PTR [esp], xmm0
  00057	68 00 00 00 00	 push	 OFFSET ??_C@_0BA@FCKMJBMG@Percentage?3?5?$CFf?6@
  0005c	e8 00 00 00 00	 call	 _printf
  00061	83 c4 0c	 add	 esp, 12			; 0000000cH
; Line 20
  00064	f3 0f 5a 45 1c	 cvtss2sd xmm0, DWORD PTR _s$[ebp+20]
  00069	83 ec 08	 sub	 esp, 8
  0006c	f2 0f 11 04 24	 movsd	 QWORD PTR [esp], xmm0
  00071	68 00 00 00 00	 push	 OFFSET ??_C@_0M@MKKIBED@Salary?3?5?$CFf?6@
  00076	e8 00 00 00 00	 call	 _printf
  0007b	83 c4 0c	 add	 esp, 12			; 0000000cH
; Line 21
  0007e	5f		 pop	 edi
  0007f	5e		 pop	 esi
  00080	5b		 pop	 ebx
  00081	81 c4 c0 00 00
	00		 add	 esp, 192		; 000000c0H
  00087	3b ec		 cmp	 ebp, esp
  00089	e8 00 00 00 00	 call	 __RTC_CheckEsp
  0008e	8b e5		 mov	 esp, ebp
  00090	5d		 pop	 ebp
  00091	c3		 ret	 0
_displayStudData ENDP
_TEXT	ENDS
; Function compile flags: /Odtp /RTCsu /ZI
;	COMDAT _acceptStudData
_TEXT	SEGMENT
_s$ = 8							; size = 4
_acceptStudData PROC					; COMDAT
; File c:\users\administrator\source\repos\day3\day3\student.c
; Line 3
  00000	55		 push	 ebp
  00001	8b ec		 mov	 ebp, esp
  00003	81 ec c0 00 00
	00		 sub	 esp, 192		; 000000c0H
  00009	53		 push	 ebx
  0000a	56		 push	 esi
  0000b	57		 push	 edi
  0000c	8d bd 40 ff ff
	ff		 lea	 edi, DWORD PTR [ebp-192]
  00012	b9 30 00 00 00	 mov	 ecx, 48			; 00000030H
  00017	b8 cc cc cc cc	 mov	 eax, -858993460		; ccccccccH
  0001c	f3 ab		 rep stosd
  0001e	b9 00 00 00 00	 mov	 ecx, OFFSET __78DD47BA_student@c
  00023	e8 00 00 00 00	 call	 @__CheckForDebuggerJustMyCode@4
; Line 4
  00028	68 00 00 00 00	 push	 OFFSET ??_C@_0BB@IGJOHCEA@Enter?5you?5name?$DP?6@
  0002d	e8 00 00 00 00	 call	 _printf
  00032	83 c4 04	 add	 esp, 4
; Line 5
  00035	6a 0a		 push	 10			; 0000000aH
  00037	8b 45 08	 mov	 eax, DWORD PTR _s$[ebp]
  0003a	83 c0 04	 add	 eax, 4
  0003d	50		 push	 eax
  0003e	68 00 00 00 00	 push	 OFFSET ??_C@_02DKCKIIND@?$CFs@
  00043	e8 00 00 00 00	 call	 _scanf_s
  00048	83 c4 0c	 add	 esp, 12			; 0000000cH
; Line 6
  0004b	68 00 00 00 00	 push	 OFFSET ??_C@_0BA@DFIOIMJC@Enter?5you?5Rno?$DP?6@
  00050	e8 00 00 00 00	 call	 _printf
  00055	83 c4 04	 add	 esp, 4
; Line 7
  00058	8b 45 08	 mov	 eax, DWORD PTR _s$[ebp]
  0005b	50		 push	 eax
  0005c	68 00 00 00 00	 push	 OFFSET ??_C@_02DPKJAMEF@?$CFd@
  00061	e8 00 00 00 00	 call	 _scanf_s
  00066	83 c4 08	 add	 esp, 8
; Line 8
  00069	68 00 00 00 00	 push	 OFFSET ??_C@_0BH@NDPKDCBM@Enter?5you?5percentage?$DP?6@
  0006e	e8 00 00 00 00	 call	 _printf
  00073	83 c4 04	 add	 esp, 4
; Line 9
  00076	8b 45 08	 mov	 eax, DWORD PTR _s$[ebp]
  00079	83 c0 10	 add	 eax, 16			; 00000010H
  0007c	50		 push	 eax
  0007d	68 00 00 00 00	 push	 OFFSET ??_C@_02NJPGOMH@?$CFf@
  00082	e8 00 00 00 00	 call	 _scanf_s
  00087	83 c4 08	 add	 esp, 8
; Line 10
  0008a	68 00 00 00 00	 push	 OFFSET ??_C@_0BD@KANLGOAB@Enter?5you?5Salary?$DP?6@
  0008f	e8 00 00 00 00	 call	 _printf
  00094	83 c4 04	 add	 esp, 4
; Line 11
  00097	8b 45 08	 mov	 eax, DWORD PTR _s$[ebp]
  0009a	83 c0 14	 add	 eax, 20			; 00000014H
  0009d	50		 push	 eax
  0009e	68 00 00 00 00	 push	 OFFSET ??_C@_02NJPGOMH@?$CFf@
  000a3	e8 00 00 00 00	 call	 _scanf_s
  000a8	83 c4 08	 add	 esp, 8
; Line 13
  000ab	5f		 pop	 edi
  000ac	5e		 pop	 esi
  000ad	5b		 pop	 ebx
  000ae	81 c4 c0 00 00
	00		 add	 esp, 192		; 000000c0H
  000b4	3b ec		 cmp	 ebp, esp
  000b6	e8 00 00 00 00	 call	 __RTC_CheckEsp
  000bb	8b e5		 mov	 esp, ebp
  000bd	5d		 pop	 ebp
  000be	c3		 ret	 0
_acceptStudData ENDP
_TEXT	ENDS
; Function compile flags: /Odtp /RTCsu /ZI
;	COMDAT _scanf_s
_TEXT	SEGMENT
__ArgList$ = -20					; size = 4
__Result$ = -8						; size = 4
__Format$ = 8						; size = 4
_scanf_s PROC						; COMDAT
; File c:\program files (x86)\windows kits\10\include\10.0.17763.0\ucrt\stdio.h
; Line 1317
  00000	55		 push	 ebp
  00001	8b ec		 mov	 ebp, esp
  00003	81 ec d8 00 00
	00		 sub	 esp, 216		; 000000d8H
  00009	53		 push	 ebx
  0000a	56		 push	 esi
  0000b	57		 push	 edi
  0000c	8d bd 28 ff ff
	ff		 lea	 edi, DWORD PTR [ebp-216]
  00012	b9 36 00 00 00	 mov	 ecx, 54			; 00000036H
  00017	b8 cc cc cc cc	 mov	 eax, -858993460		; ccccccccH
  0001c	f3 ab		 rep stosd
  0001e	b9 00 00 00 00	 mov	 ecx, OFFSET __A452D4A0_stdio@h
  00023	e8 00 00 00 00	 call	 @__CheckForDebuggerJustMyCode@4
; Line 1320
  00028	8d 45 0c	 lea	 eax, DWORD PTR __Format$[ebp+4]
  0002b	89 45 ec	 mov	 DWORD PTR __ArgList$[ebp], eax
; Line 1321
  0002e	8b 45 ec	 mov	 eax, DWORD PTR __ArgList$[ebp]
  00031	50		 push	 eax
  00032	6a 00		 push	 0
  00034	8b 4d 08	 mov	 ecx, DWORD PTR __Format$[ebp]
  00037	51		 push	 ecx
  00038	8b f4		 mov	 esi, esp
  0003a	6a 00		 push	 0
  0003c	ff 15 00 00 00
	00		 call	 DWORD PTR __imp____acrt_iob_func
  00042	83 c4 04	 add	 esp, 4
  00045	3b f4		 cmp	 esi, esp
  00047	e8 00 00 00 00	 call	 __RTC_CheckEsp
  0004c	50		 push	 eax
  0004d	e8 00 00 00 00	 call	 __vfscanf_s_l
  00052	83 c4 10	 add	 esp, 16			; 00000010H
  00055	89 45 f8	 mov	 DWORD PTR __Result$[ebp], eax
; Line 1322
  00058	c7 45 ec 00 00
	00 00		 mov	 DWORD PTR __ArgList$[ebp], 0
; Line 1323
  0005f	8b 45 f8	 mov	 eax, DWORD PTR __Result$[ebp]
; Line 1324
  00062	5f		 pop	 edi
  00063	5e		 pop	 esi
  00064	5b		 pop	 ebx
  00065	81 c4 d8 00 00
	00		 add	 esp, 216		; 000000d8H
  0006b	3b ec		 cmp	 ebp, esp
  0006d	e8 00 00 00 00	 call	 __RTC_CheckEsp
  00072	8b e5		 mov	 esp, ebp
  00074	5d		 pop	 ebp
  00075	c3		 ret	 0
_scanf_s ENDP
_TEXT	ENDS
; Function compile flags: /Odtp /RTCsu /ZI
;	COMDAT __vfscanf_s_l
_TEXT	SEGMENT
__Stream$ = 8						; size = 4
__Format$ = 12						; size = 4
__Locale$ = 16						; size = 4
__ArgList$ = 20						; size = 4
__vfscanf_s_l PROC					; COMDAT
; File c:\program files (x86)\windows kits\10\include\10.0.17763.0\ucrt\stdio.h
; Line 1093
  00000	55		 push	 ebp
  00001	8b ec		 mov	 ebp, esp
  00003	81 ec c0 00 00
	00		 sub	 esp, 192		; 000000c0H
  00009	53		 push	 ebx
  0000a	56		 push	 esi
  0000b	57		 push	 edi
  0000c	8d bd 40 ff ff
	ff		 lea	 edi, DWORD PTR [ebp-192]
  00012	b9 30 00 00 00	 mov	 ecx, 48			; 00000030H
  00017	b8 cc cc cc cc	 mov	 eax, -858993460		; ccccccccH
  0001c	f3 ab		 rep stosd
  0001e	b9 00 00 00 00	 mov	 ecx, OFFSET __A452D4A0_stdio@h
  00023	e8 00 00 00 00	 call	 @__CheckForDebuggerJustMyCode@4
; Line 1094
  00028	8b f4		 mov	 esi, esp
  0002a	8b 45 14	 mov	 eax, DWORD PTR __ArgList$[ebp]
  0002d	50		 push	 eax
  0002e	8b 4d 10	 mov	 ecx, DWORD PTR __Locale$[ebp]
  00031	51		 push	 ecx
  00032	8b 55 0c	 mov	 edx, DWORD PTR __Format$[ebp]
  00035	52		 push	 edx
  00036	8b 45 08	 mov	 eax, DWORD PTR __Stream$[ebp]
  00039	50		 push	 eax
  0003a	e8 00 00 00 00	 call	 ___local_stdio_scanf_options
  0003f	8b 08		 mov	 ecx, DWORD PTR [eax]
  00041	83 c9 01	 or	 ecx, 1
  00044	8b 50 04	 mov	 edx, DWORD PTR [eax+4]
  00047	52		 push	 edx
  00048	51		 push	 ecx
  00049	ff 15 00 00 00
	00		 call	 DWORD PTR __imp____stdio_common_vfscanf
  0004f	83 c4 18	 add	 esp, 24			; 00000018H
  00052	3b f4		 cmp	 esi, esp
  00054	e8 00 00 00 00	 call	 __RTC_CheckEsp
; Line 1097
  00059	5f		 pop	 edi
  0005a	5e		 pop	 esi
  0005b	5b		 pop	 ebx
  0005c	81 c4 c0 00 00
	00		 add	 esp, 192		; 000000c0H
  00062	3b ec		 cmp	 ebp, esp
  00064	e8 00 00 00 00	 call	 __RTC_CheckEsp
  00069	8b e5		 mov	 esp, ebp
  0006b	5d		 pop	 ebp
  0006c	c3		 ret	 0
__vfscanf_s_l ENDP
_TEXT	ENDS
; Function compile flags: /Odtp /RTCsu /ZI
;	COMDAT _printf
_TEXT	SEGMENT
__ArgList$ = -20					; size = 4
__Result$ = -8						; size = 4
__Format$ = 8						; size = 4
_printf	PROC						; COMDAT
; File c:\program files (x86)\windows kits\10\include\10.0.17763.0\ucrt\stdio.h
; Line 954
  00000	55		 push	 ebp
  00001	8b ec		 mov	 ebp, esp
  00003	81 ec d8 00 00
	00		 sub	 esp, 216		; 000000d8H
  00009	53		 push	 ebx
  0000a	56		 push	 esi
  0000b	57		 push	 edi
  0000c	8d bd 28 ff ff
	ff		 lea	 edi, DWORD PTR [ebp-216]
  00012	b9 36 00 00 00	 mov	 ecx, 54			; 00000036H
  00017	b8 cc cc cc cc	 mov	 eax, -858993460		; ccccccccH
  0001c	f3 ab		 rep stosd
  0001e	b9 00 00 00 00	 mov	 ecx, OFFSET __A452D4A0_stdio@h
  00023	e8 00 00 00 00	 call	 @__CheckForDebuggerJustMyCode@4
; Line 957
  00028	8d 45 0c	 lea	 eax, DWORD PTR __Format$[ebp+4]
  0002b	89 45 ec	 mov	 DWORD PTR __ArgList$[ebp], eax
; Line 958
  0002e	8b 45 ec	 mov	 eax, DWORD PTR __ArgList$[ebp]
  00031	50		 push	 eax
  00032	6a 00		 push	 0
  00034	8b 4d 08	 mov	 ecx, DWORD PTR __Format$[ebp]
  00037	51		 push	 ecx
  00038	8b f4		 mov	 esi, esp
  0003a	6a 01		 push	 1
  0003c	ff 15 00 00 00
	00		 call	 DWORD PTR __imp____acrt_iob_func
  00042	83 c4 04	 add	 esp, 4
  00045	3b f4		 cmp	 esi, esp
  00047	e8 00 00 00 00	 call	 __RTC_CheckEsp
  0004c	50		 push	 eax
  0004d	e8 00 00 00 00	 call	 __vfprintf_l
  00052	83 c4 10	 add	 esp, 16			; 00000010H
  00055	89 45 f8	 mov	 DWORD PTR __Result$[ebp], eax
; Line 959
  00058	c7 45 ec 00 00
	00 00		 mov	 DWORD PTR __ArgList$[ebp], 0
; Line 960
  0005f	8b 45 f8	 mov	 eax, DWORD PTR __Result$[ebp]
; Line 961
  00062	5f		 pop	 edi
  00063	5e		 pop	 esi
  00064	5b		 pop	 ebx
  00065	81 c4 d8 00 00
	00		 add	 esp, 216		; 000000d8H
  0006b	3b ec		 cmp	 ebp, esp
  0006d	e8 00 00 00 00	 call	 __RTC_CheckEsp
  00072	8b e5		 mov	 esp, ebp
  00074	5d		 pop	 ebp
  00075	c3		 ret	 0
_printf	ENDP
_TEXT	ENDS
; Function compile flags: /Odtp /RTCsu /ZI
;	COMDAT __vfprintf_l
_TEXT	SEGMENT
__Stream$ = 8						; size = 4
__Format$ = 12						; size = 4
__Locale$ = 16						; size = 4
__ArgList$ = 20						; size = 4
__vfprintf_l PROC					; COMDAT
; File c:\program files (x86)\windows kits\10\include\10.0.17763.0\ucrt\stdio.h
; Line 642
  00000	55		 push	 ebp
  00001	8b ec		 mov	 ebp, esp
  00003	81 ec c0 00 00
	00		 sub	 esp, 192		; 000000c0H
  00009	53		 push	 ebx
  0000a	56		 push	 esi
  0000b	57		 push	 edi
  0000c	8d bd 40 ff ff
	ff		 lea	 edi, DWORD PTR [ebp-192]
  00012	b9 30 00 00 00	 mov	 ecx, 48			; 00000030H
  00017	b8 cc cc cc cc	 mov	 eax, -858993460		; ccccccccH
  0001c	f3 ab		 rep stosd
  0001e	b9 00 00 00 00	 mov	 ecx, OFFSET __A452D4A0_stdio@h
  00023	e8 00 00 00 00	 call	 @__CheckForDebuggerJustMyCode@4
; Line 643
  00028	8b f4		 mov	 esi, esp
  0002a	8b 45 14	 mov	 eax, DWORD PTR __ArgList$[ebp]
  0002d	50		 push	 eax
  0002e	8b 4d 10	 mov	 ecx, DWORD PTR __Locale$[ebp]
  00031	51		 push	 ecx
  00032	8b 55 0c	 mov	 edx, DWORD PTR __Format$[ebp]
  00035	52		 push	 edx
  00036	8b 45 08	 mov	 eax, DWORD PTR __Stream$[ebp]
  00039	50		 push	 eax
  0003a	e8 00 00 00 00	 call	 ___local_stdio_printf_options
  0003f	8b 48 04	 mov	 ecx, DWORD PTR [eax+4]
  00042	51		 push	 ecx
  00043	8b 10		 mov	 edx, DWORD PTR [eax]
  00045	52		 push	 edx
  00046	ff 15 00 00 00
	00		 call	 DWORD PTR __imp____stdio_common_vfprintf
  0004c	83 c4 18	 add	 esp, 24			; 00000018H
  0004f	3b f4		 cmp	 esi, esp
  00051	e8 00 00 00 00	 call	 __RTC_CheckEsp
; Line 644
  00056	5f		 pop	 edi
  00057	5e		 pop	 esi
  00058	5b		 pop	 ebx
  00059	81 c4 c0 00 00
	00		 add	 esp, 192		; 000000c0H
  0005f	3b ec		 cmp	 ebp, esp
  00061	e8 00 00 00 00	 call	 __RTC_CheckEsp
  00066	8b e5		 mov	 esp, ebp
  00068	5d		 pop	 ebp
  00069	c3		 ret	 0
__vfprintf_l ENDP
_TEXT	ENDS
; Function compile flags: /Odtp /RTCsu /ZI
;	COMDAT ___local_stdio_scanf_options
_TEXT	SEGMENT
___local_stdio_scanf_options PROC			; COMDAT
; File c:\program files (x86)\windows kits\10\include\10.0.17763.0\ucrt\corecrt_stdio_config.h
; Line 96
  00000	55		 push	 ebp
  00001	8b ec		 mov	 ebp, esp
  00003	81 ec c0 00 00
	00		 sub	 esp, 192		; 000000c0H
  00009	53		 push	 ebx
  0000a	56		 push	 esi
  0000b	57		 push	 edi
  0000c	8d bd 40 ff ff
	ff		 lea	 edi, DWORD PTR [ebp-192]
  00012	b9 30 00 00 00	 mov	 ecx, 48			; 00000030H
  00017	b8 cc cc cc cc	 mov	 eax, -858993460		; ccccccccH
  0001c	f3 ab		 rep stosd
  0001e	b9 00 00 00 00	 mov	 ecx, OFFSET __2CC6E67D_corecrt_stdio_config@h
  00023	e8 00 00 00 00	 call	 @__CheckForDebuggerJustMyCode@4
; Line 98
  00028	b8 00 00 00 00	 mov	 eax, OFFSET ?_OptionsStorage@?1??__local_stdio_scanf_options@@9@9 ; `__local_stdio_scanf_options'::`2'::_OptionsStorage
; Line 99
  0002d	5f		 pop	 edi
  0002e	5e		 pop	 esi
  0002f	5b		 pop	 ebx
  00030	81 c4 c0 00 00
	00		 add	 esp, 192		; 000000c0H
  00036	3b ec		 cmp	 ebp, esp
  00038	e8 00 00 00 00	 call	 __RTC_CheckEsp
  0003d	8b e5		 mov	 esp, ebp
  0003f	5d		 pop	 ebp
  00040	c3		 ret	 0
___local_stdio_scanf_options ENDP
_TEXT	ENDS
; Function compile flags: /Odtp /RTCsu /ZI
;	COMDAT ___local_stdio_printf_options
_TEXT	SEGMENT
___local_stdio_printf_options PROC			; COMDAT
; File c:\program files (x86)\windows kits\10\include\10.0.17763.0\ucrt\corecrt_stdio_config.h
; Line 86
  00000	55		 push	 ebp
  00001	8b ec		 mov	 ebp, esp
  00003	81 ec c0 00 00
	00		 sub	 esp, 192		; 000000c0H
  00009	53		 push	 ebx
  0000a	56		 push	 esi
  0000b	57		 push	 edi
  0000c	8d bd 40 ff ff
	ff		 lea	 edi, DWORD PTR [ebp-192]
  00012	b9 30 00 00 00	 mov	 ecx, 48			; 00000030H
  00017	b8 cc cc cc cc	 mov	 eax, -858993460		; ccccccccH
  0001c	f3 ab		 rep stosd
  0001e	b9 00 00 00 00	 mov	 ecx, OFFSET __2CC6E67D_corecrt_stdio_config@h
  00023	e8 00 00 00 00	 call	 @__CheckForDebuggerJustMyCode@4
; Line 88
  00028	b8 00 00 00 00	 mov	 eax, OFFSET ?_OptionsStorage@?1??__local_stdio_printf_options@@9@9 ; `__local_stdio_printf_options'::`2'::_OptionsStorage
; Line 89
  0002d	5f		 pop	 edi
  0002e	5e		 pop	 esi
  0002f	5b		 pop	 ebx
  00030	81 c4 c0 00 00
	00		 add	 esp, 192		; 000000c0H
  00036	3b ec		 cmp	 ebp, esp
  00038	e8 00 00 00 00	 call	 __RTC_CheckEsp
  0003d	8b e5		 mov	 esp, ebp
  0003f	5d		 pop	 ebp
  00040	c3		 ret	 0
___local_stdio_printf_options ENDP
_TEXT	ENDS
END
