; Listing generated by Microsoft (R) Optimizing Compiler Version 19.16.27032.1 

	TITLE	C:\Users\Administrator\source\repos\Day3\Day3\StudnetOpertaions.c
	.686P
	.XMM
	include listing.inc
	.model	flat

INCLUDELIB MSVCRTD
INCLUDELIB OLDNAMES

msvcjmc	SEGMENT
__2CC6E67D_corecrt_stdio_config@h DB 01H
__05476D76_corecrt_wstdio@h DB 01H
__A452D4A0_stdio@h DB 01H
__E68D615C_studnetopertaions@c DB 01H
msvcjmc	ENDS
PUBLIC	___local_stdio_printf_options
PUBLIC	__vfprintf_l
PUBLIC	_printf
PUBLIC	_main
PUBLIC	__JustMyCode_Default
PUBLIC	??_C@_0BD@HIMLPLOK@New?5Salary?5is?5?3?5?$CFf@	; `string'
EXTRN	__imp____acrt_iob_func:PROC
EXTRN	__imp____stdio_common_vfprintf:PROC
EXTRN	_acceptStudData:PROC
EXTRN	_displayStudData:PROC
EXTRN	_calculatePercentage:PROC
EXTRN	@_RTC_CheckStackVars@8:PROC
EXTRN	@__CheckForDebuggerJustMyCode@4:PROC
EXTRN	@__security_check_cookie@4:PROC
EXTRN	__RTC_CheckEsp:PROC
EXTRN	__RTC_InitBase:PROC
EXTRN	__RTC_Shutdown:PROC
EXTRN	___security_cookie:DWORD
EXTRN	__fltused:DWORD
_DATA	SEGMENT
COMM	?_OptionsStorage@?1??__local_stdio_printf_options@@9@9:QWORD							; `__local_stdio_printf_options'::`2'::_OptionsStorage
_DATA	ENDS
;	COMDAT rtc$TMZ
rtc$TMZ	SEGMENT
__RTC_Shutdown.rtc$TMZ DD FLAT:__RTC_Shutdown
rtc$TMZ	ENDS
;	COMDAT rtc$IMZ
rtc$IMZ	SEGMENT
__RTC_InitBase.rtc$IMZ DD FLAT:__RTC_InitBase
rtc$IMZ	ENDS
;	COMDAT ??_C@_0BD@HIMLPLOK@New?5Salary?5is?5?3?5?$CFf@
CONST	SEGMENT
??_C@_0BD@HIMLPLOK@New?5Salary?5is?5?3?5?$CFf@ DB 'New Salary is : %f', 00H ; `string'
CONST	ENDS
; Function compile flags: /Odt
;	COMDAT __JustMyCode_Default
_TEXT	SEGMENT
__JustMyCode_Default PROC				; COMDAT
  00000	55		 push	 ebp
  00001	8b ec		 mov	 ebp, esp
  00003	5d		 pop	 ebp
  00004	c3		 ret	 0
__JustMyCode_Default ENDP
_TEXT	ENDS
; Function compile flags: /Odtp /RTCsu /ZI
;	COMDAT _main
_TEXT	SEGMENT
_obj$ = -32						; size = 24
__$ArrayPad$ = -4					; size = 4
_main	PROC						; COMDAT
; File c:\users\administrator\source\repos\day3\day3\studnetopertaions.c
; Line 4
  00000	55		 push	 ebp
  00001	8b ec		 mov	 ebp, esp
  00003	81 ec e4 00 00
	00		 sub	 esp, 228		; 000000e4H
  00009	53		 push	 ebx
  0000a	56		 push	 esi
  0000b	57		 push	 edi
  0000c	8d bd 1c ff ff
	ff		 lea	 edi, DWORD PTR [ebp-228]
  00012	b9 39 00 00 00	 mov	 ecx, 57			; 00000039H
  00017	b8 cc cc cc cc	 mov	 eax, -858993460		; ccccccccH
  0001c	f3 ab		 rep stosd
  0001e	a1 00 00 00 00	 mov	 eax, DWORD PTR ___security_cookie
  00023	33 c5		 xor	 eax, ebp
  00025	89 45 fc	 mov	 DWORD PTR __$ArrayPad$[ebp], eax
  00028	b9 00 00 00 00	 mov	 ecx, OFFSET __E68D615C_studnetopertaions@c
  0002d	e8 00 00 00 00	 call	 @__CheckForDebuggerJustMyCode@4
; Line 7
  00032	8d 45 e0	 lea	 eax, DWORD PTR _obj$[ebp]
  00035	50		 push	 eax
  00036	e8 00 00 00 00	 call	 _acceptStudData
  0003b	83 c4 04	 add	 esp, 4
; Line 8
  0003e	83 ec 18	 sub	 esp, 24			; 00000018H
  00041	8b c4		 mov	 eax, esp
  00043	8b 4d e0	 mov	 ecx, DWORD PTR _obj$[ebp]
  00046	89 08		 mov	 DWORD PTR [eax], ecx
  00048	8b 55 e4	 mov	 edx, DWORD PTR _obj$[ebp+4]
  0004b	89 50 04	 mov	 DWORD PTR [eax+4], edx
  0004e	8b 4d e8	 mov	 ecx, DWORD PTR _obj$[ebp+8]
  00051	89 48 08	 mov	 DWORD PTR [eax+8], ecx
  00054	8b 55 ec	 mov	 edx, DWORD PTR _obj$[ebp+12]
  00057	89 50 0c	 mov	 DWORD PTR [eax+12], edx
  0005a	8b 4d f0	 mov	 ecx, DWORD PTR _obj$[ebp+16]
  0005d	89 48 10	 mov	 DWORD PTR [eax+16], ecx
  00060	8b 55 f4	 mov	 edx, DWORD PTR _obj$[ebp+20]
  00063	89 50 14	 mov	 DWORD PTR [eax+20], edx
  00066	e8 00 00 00 00	 call	 _displayStudData
  0006b	83 c4 18	 add	 esp, 24			; 00000018H
; Line 10
  0006e	8d 45 f4	 lea	 eax, DWORD PTR _obj$[ebp+20]
  00071	50		 push	 eax
  00072	e8 00 00 00 00	 call	 _calculatePercentage
  00077	83 c4 04	 add	 esp, 4
; Line 11
  0007a	f3 0f 5a 45 f4	 cvtss2sd xmm0, DWORD PTR _obj$[ebp+20]
  0007f	83 ec 08	 sub	 esp, 8
  00082	f2 0f 11 04 24	 movsd	 QWORD PTR [esp], xmm0
  00087	68 00 00 00 00	 push	 OFFSET ??_C@_0BD@HIMLPLOK@New?5Salary?5is?5?3?5?$CFf@
  0008c	e8 00 00 00 00	 call	 _printf
  00091	83 c4 0c	 add	 esp, 12			; 0000000cH
; Line 12
  00094	33 c0		 xor	 eax, eax
  00096	52		 push	 edx
  00097	8b cd		 mov	 ecx, ebp
  00099	50		 push	 eax
  0009a	8d 15 00 00 00
	00		 lea	 edx, DWORD PTR $LN5@main
  000a0	e8 00 00 00 00	 call	 @_RTC_CheckStackVars@8
  000a5	58		 pop	 eax
  000a6	5a		 pop	 edx
  000a7	5f		 pop	 edi
  000a8	5e		 pop	 esi
  000a9	5b		 pop	 ebx
  000aa	8b 4d fc	 mov	 ecx, DWORD PTR __$ArrayPad$[ebp]
  000ad	33 cd		 xor	 ecx, ebp
  000af	e8 00 00 00 00	 call	 @__security_check_cookie@4
  000b4	81 c4 e4 00 00
	00		 add	 esp, 228		; 000000e4H
  000ba	3b ec		 cmp	 ebp, esp
  000bc	e8 00 00 00 00	 call	 __RTC_CheckEsp
  000c1	8b e5		 mov	 esp, ebp
  000c3	5d		 pop	 ebp
  000c4	c3		 ret	 0
  000c5	0f 1f 00	 npad	 3
$LN5@main:
  000c8	01 00 00 00	 DD	 1
  000cc	00 00 00 00	 DD	 $LN4@main
$LN4@main:
  000d0	e0 ff ff ff	 DD	 -32			; ffffffe0H
  000d4	18 00 00 00	 DD	 24			; 00000018H
  000d8	00 00 00 00	 DD	 $LN3@main
$LN3@main:
  000dc	6f		 DB	 111			; 0000006fH
  000dd	62		 DB	 98			; 00000062H
  000de	6a		 DB	 106			; 0000006aH
  000df	00		 DB	 0
_main	ENDP
_TEXT	ENDS
; Function compile flags: /Odtp /RTCsu /ZI
;	COMDAT _printf
_TEXT	SEGMENT
__ArgList$ = -20					; size = 4
__Result$ = -8						; size = 4
__Format$ = 8						; size = 4
_printf	PROC						; COMDAT
; File c:\program files (x86)\windows kits\10\include\10.0.17763.0\ucrt\stdio.h
; Line 954
  00000	55		 push	 ebp
  00001	8b ec		 mov	 ebp, esp
  00003	81 ec d8 00 00
	00		 sub	 esp, 216		; 000000d8H
  00009	53		 push	 ebx
  0000a	56		 push	 esi
  0000b	57		 push	 edi
  0000c	8d bd 28 ff ff
	ff		 lea	 edi, DWORD PTR [ebp-216]
  00012	b9 36 00 00 00	 mov	 ecx, 54			; 00000036H
  00017	b8 cc cc cc cc	 mov	 eax, -858993460		; ccccccccH
  0001c	f3 ab		 rep stosd
  0001e	b9 00 00 00 00	 mov	 ecx, OFFSET __A452D4A0_stdio@h
  00023	e8 00 00 00 00	 call	 @__CheckForDebuggerJustMyCode@4
; Line 957
  00028	8d 45 0c	 lea	 eax, DWORD PTR __Format$[ebp+4]
  0002b	89 45 ec	 mov	 DWORD PTR __ArgList$[ebp], eax
; Line 958
  0002e	8b 45 ec	 mov	 eax, DWORD PTR __ArgList$[ebp]
  00031	50		 push	 eax
  00032	6a 00		 push	 0
  00034	8b 4d 08	 mov	 ecx, DWORD PTR __Format$[ebp]
  00037	51		 push	 ecx
  00038	8b f4		 mov	 esi, esp
  0003a	6a 01		 push	 1
  0003c	ff 15 00 00 00
	00		 call	 DWORD PTR __imp____acrt_iob_func
  00042	83 c4 04	 add	 esp, 4
  00045	3b f4		 cmp	 esi, esp
  00047	e8 00 00 00 00	 call	 __RTC_CheckEsp
  0004c	50		 push	 eax
  0004d	e8 00 00 00 00	 call	 __vfprintf_l
  00052	83 c4 10	 add	 esp, 16			; 00000010H
  00055	89 45 f8	 mov	 DWORD PTR __Result$[ebp], eax
; Line 959
  00058	c7 45 ec 00 00
	00 00		 mov	 DWORD PTR __ArgList$[ebp], 0
; Line 960
  0005f	8b 45 f8	 mov	 eax, DWORD PTR __Result$[ebp]
; Line 961
  00062	5f		 pop	 edi
  00063	5e		 pop	 esi
  00064	5b		 pop	 ebx
  00065	81 c4 d8 00 00
	00		 add	 esp, 216		; 000000d8H
  0006b	3b ec		 cmp	 ebp, esp
  0006d	e8 00 00 00 00	 call	 __RTC_CheckEsp
  00072	8b e5		 mov	 esp, ebp
  00074	5d		 pop	 ebp
  00075	c3		 ret	 0
_printf	ENDP
_TEXT	ENDS
; Function compile flags: /Odtp /RTCsu /ZI
;	COMDAT __vfprintf_l
_TEXT	SEGMENT
__Stream$ = 8						; size = 4
__Format$ = 12						; size = 4
__Locale$ = 16						; size = 4
__ArgList$ = 20						; size = 4
__vfprintf_l PROC					; COMDAT
; File c:\program files (x86)\windows kits\10\include\10.0.17763.0\ucrt\stdio.h
; Line 642
  00000	55		 push	 ebp
  00001	8b ec		 mov	 ebp, esp
  00003	81 ec c0 00 00
	00		 sub	 esp, 192		; 000000c0H
  00009	53		 push	 ebx
  0000a	56		 push	 esi
  0000b	57		 push	 edi
  0000c	8d bd 40 ff ff
	ff		 lea	 edi, DWORD PTR [ebp-192]
  00012	b9 30 00 00 00	 mov	 ecx, 48			; 00000030H
  00017	b8 cc cc cc cc	 mov	 eax, -858993460		; ccccccccH
  0001c	f3 ab		 rep stosd
  0001e	b9 00 00 00 00	 mov	 ecx, OFFSET __A452D4A0_stdio@h
  00023	e8 00 00 00 00	 call	 @__CheckForDebuggerJustMyCode@4
; Line 643
  00028	8b f4		 mov	 esi, esp
  0002a	8b 45 14	 mov	 eax, DWORD PTR __ArgList$[ebp]
  0002d	50		 push	 eax
  0002e	8b 4d 10	 mov	 ecx, DWORD PTR __Locale$[ebp]
  00031	51		 push	 ecx
  00032	8b 55 0c	 mov	 edx, DWORD PTR __Format$[ebp]
  00035	52		 push	 edx
  00036	8b 45 08	 mov	 eax, DWORD PTR __Stream$[ebp]
  00039	50		 push	 eax
  0003a	e8 00 00 00 00	 call	 ___local_stdio_printf_options
  0003f	8b 48 04	 mov	 ecx, DWORD PTR [eax+4]
  00042	51		 push	 ecx
  00043	8b 10		 mov	 edx, DWORD PTR [eax]
  00045	52		 push	 edx
  00046	ff 15 00 00 00
	00		 call	 DWORD PTR __imp____stdio_common_vfprintf
  0004c	83 c4 18	 add	 esp, 24			; 00000018H
  0004f	3b f4		 cmp	 esi, esp
  00051	e8 00 00 00 00	 call	 __RTC_CheckEsp
; Line 644
  00056	5f		 pop	 edi
  00057	5e		 pop	 esi
  00058	5b		 pop	 ebx
  00059	81 c4 c0 00 00
	00		 add	 esp, 192		; 000000c0H
  0005f	3b ec		 cmp	 ebp, esp
  00061	e8 00 00 00 00	 call	 __RTC_CheckEsp
  00066	8b e5		 mov	 esp, ebp
  00068	5d		 pop	 ebp
  00069	c3		 ret	 0
__vfprintf_l ENDP
_TEXT	ENDS
; Function compile flags: /Odtp /RTCsu /ZI
;	COMDAT ___local_stdio_printf_options
_TEXT	SEGMENT
___local_stdio_printf_options PROC			; COMDAT
; File c:\program files (x86)\windows kits\10\include\10.0.17763.0\ucrt\corecrt_stdio_config.h
; Line 86
  00000	55		 push	 ebp
  00001	8b ec		 mov	 ebp, esp
  00003	81 ec c0 00 00
	00		 sub	 esp, 192		; 000000c0H
  00009	53		 push	 ebx
  0000a	56		 push	 esi
  0000b	57		 push	 edi
  0000c	8d bd 40 ff ff
	ff		 lea	 edi, DWORD PTR [ebp-192]
  00012	b9 30 00 00 00	 mov	 ecx, 48			; 00000030H
  00017	b8 cc cc cc cc	 mov	 eax, -858993460		; ccccccccH
  0001c	f3 ab		 rep stosd
  0001e	b9 00 00 00 00	 mov	 ecx, OFFSET __2CC6E67D_corecrt_stdio_config@h
  00023	e8 00 00 00 00	 call	 @__CheckForDebuggerJustMyCode@4
; Line 88
  00028	b8 00 00 00 00	 mov	 eax, OFFSET ?_OptionsStorage@?1??__local_stdio_printf_options@@9@9 ; `__local_stdio_printf_options'::`2'::_OptionsStorage
; Line 89
  0002d	5f		 pop	 edi
  0002e	5e		 pop	 esi
  0002f	5b		 pop	 ebx
  00030	81 c4 c0 00 00
	00		 add	 esp, 192		; 000000c0H
  00036	3b ec		 cmp	 ebp, esp
  00038	e8 00 00 00 00	 call	 __RTC_CheckEsp
  0003d	8b e5		 mov	 esp, ebp
  0003f	5d		 pop	 ebp
  00040	c3		 ret	 0
___local_stdio_printf_options ENDP
_TEXT	ENDS
END
